target datalayout = "e-m:e-p270:32:32-p271:32:32-p272:64:64-i64:64-i128:128-f80:128-n8:16:32:64-S128"
target triple = "x86_64-pc-linux-gnu"

%struct.ident_t = type { i32, i32, i32, i32, ptr }
%"class.ncnn::Mat" = type { ptr, ptr, i64, i32, ptr, i32, i32, i32, i32, i32, i64 }

@1 = private unnamed_addr constant %struct.ident_t { i32 0, i32 514, i32 0, i32 22, ptr @0 }, align 8

; Function Attrs: noinline noreturn nounwind uwtable
define linkonce_odr hidden void @__clang_call_terminate(ptr noundef %0) #9 comdat {
  %2 = call ptr @__cxa_begin_catch(ptr %0) #8
  call void @_ZSt9terminatev() #14
  unreachable
}

; Function Attrs: alwaysinline mustprogress nounwind uwtable
define linkonce_odr hidden noundef ptr @_ZN4ncnn3Mat3rowEi(ptr noundef nonnull align 8 dereferenceable(72) %0, i32 noundef %1) #5 comdat align 2 {
  %3 = alloca ptr, align 8
  %4 = alloca i32, align 4
  store ptr %0, ptr %3, align 8, !tbaa !9
  store i32 %1, ptr %4, align 4, !tbaa !13
  %5 = load ptr, ptr %3, align 8
  %6 = getelementptr inbounds nuw %"class.ncnn::Mat", ptr %5, i32 0, i32 0
  %7 = load ptr, ptr %6, align 8, !tbaa !54
  %8 = getelementptr inbounds nuw %"class.ncnn::Mat", ptr %5, i32 0, i32 6
  %9 = load i32, ptr %8, align 4, !tbaa !41
  %10 = sext i32 %9 to i64
  %11 = load i32, ptr %4, align 4, !tbaa !13
  %12 = sext i32 %11 to i64
  %13 = mul i64 %10, %12
  %14 = getelementptr inbounds nuw %"class.ncnn::Mat", ptr %5, i32 0, i32 2
  %15 = load i64, ptr %14, align 8, !tbaa !32
  %16 = mul i64 %13, %15
  %17 = getelementptr inbounds nuw i8, ptr %7, i64 %16
  ret ptr %17
}

; Function Attrs: alwaysinline mustprogress nounwind uwtable
define linkonce_odr hidden noundef ptr @_ZNK4ncnn3Mat3rowEi(ptr noundef nonnull align 8 dereferenceable(72) %0, i32 noundef %1) #5 comdat align 2 {
  %3 = alloca ptr, align 8
  %4 = alloca i32, align 4
  store ptr %0, ptr %3, align 8, !tbaa !9
  store i32 %1, ptr %4, align 4, !tbaa !13
  %5 = load ptr, ptr %3, align 8
  %6 = getelementptr inbounds nuw %"class.ncnn::Mat", ptr %5, i32 0, i32 0
  %7 = load ptr, ptr %6, align 8, !tbaa !54
  %8 = getelementptr inbounds nuw %"class.ncnn::Mat", ptr %5, i32 0, i32 6
  %9 = load i32, ptr %8, align 4, !tbaa !41
  %10 = sext i32 %9 to i64
  %11 = load i32, ptr %4, align 4, !tbaa !13
  %12 = sext i32 %11 to i64
  %13 = mul i64 %10, %12
  %14 = getelementptr inbounds nuw %"class.ncnn::Mat", ptr %5, i32 0, i32 2
  %15 = load i64, ptr %14, align 8, !tbaa !32
  %16 = mul i64 %13, %15
  %17 = getelementptr inbounds nuw i8, ptr %7, i64 %16
  ret ptr %17
}

; Function Attrs: alwaysinline norecurse nounwind uwtable
define internal void @_ZNK4ncnn11Packing_x867forwardERKNS_3MatERS1_RKNS_6OptionE.omp_outlined.9(ptr noalias noundef %0, ptr noalias noundef %1, ptr noundef nonnull align 4 dereferenceable(4) %2, ptr noundef nonnull align 8 dereferenceable(72) %3, ptr noundef nonnull align 8 dereferenceable(72) %4, ptr noundef nonnull align 4 dereferenceable(4) %5) #11 personality ptr @__gxx_personality_v0 {
  %7 = alloca ptr, align 8
  %8 = alloca ptr, align 8
  %9 = alloca ptr, align 8
  %10 = alloca ptr, align 8
  %11 = alloca ptr, align 8
  %12 = alloca ptr, align 8
  %13 = alloca ptr, align 8
  %14 = alloca ptr, align 8
  %15 = alloca i32, align 4
  %16 = alloca i32, align 4
  %17 = alloca i32, align 4
  %18 = alloca i32, align 4
  %19 = alloca i32, align 4
  %20 = alloca i32, align 4
  %21 = alloca i32, align 4
  %22 = alloca i32, align 4
  %23 = alloca i32, align 4
  %24 = alloca ptr, align 8
  %25 = alloca ptr, align 8
  %26 = alloca ptr, align 8
  %27 = alloca ptr, align 8
  %28 = alloca ptr, align 8
  %29 = alloca i32, align 4
  store ptr %0, ptr %7, align 8, !tbaa !56
  store ptr %1, ptr %8, align 8, !tbaa !56
  store ptr %2, ptr %9, align 8, !tbaa !56
  store ptr %3, ptr %10, align 8, !tbaa !9
  store ptr %4, ptr %11, align 8, !tbaa !9
  store ptr %5, ptr %12, align 8, !tbaa !56
  %30 = load ptr, ptr %9, align 8, !tbaa !56
  %31 = load ptr, ptr %10, align 8, !tbaa !9
  %32 = load ptr, ptr %11, align 8, !tbaa !9
  %33 = load ptr, ptr %12, align 8, !tbaa !56
  store ptr %31, ptr %13, align 8
  store ptr %32, ptr %14, align 8
  call void @llvm.lifetime.start.p0(i64 4, ptr %15) #8
  call void @llvm.lifetime.start.p0(i64 4, ptr %16) #8
  %34 = load i32, ptr %30, align 4, !tbaa !13
  store i32 %34, ptr %16, align 4, !tbaa !13
  call void @llvm.lifetime.start.p0(i64 4, ptr %17) #8
  %35 = load i32, ptr %16, align 4, !tbaa !13
  %36 = sub nsw i32 %35, 0
  %37 = sdiv i32 %36, 1
  %38 = sub nsw i32 %37, 1
  store i32 %38, ptr %17, align 4, !tbaa !13
  call void @llvm.lifetime.start.p0(i64 4, ptr %18) #8
  store i32 0, ptr %18, align 4, !tbaa !13
  call void @llvm.lifetime.end.p0(i64 4, ptr %18) #8
  %39 = load i32, ptr %16, align 4, !tbaa !13
  %40 = icmp slt i32 0, %39
  br i1 %40, label %41, label %199

41:                                               ; preds = %6
  call void @llvm.lifetime.start.p0(i64 4, ptr %19) #8
  store i32 0, ptr %19, align 4, !tbaa !13
  call void @llvm.lifetime.start.p0(i64 4, ptr %20) #8
  %42 = load i32, ptr %17, align 4, !tbaa !13
  store i32 %42, ptr %20, align 4, !tbaa !13
  call void @llvm.lifetime.start.p0(i64 4, ptr %21) #8
  store i32 1, ptr %21, align 4, !tbaa !13
  call void @llvm.lifetime.start.p0(i64 4, ptr %22) #8
  store i32 0, ptr %22, align 4, !tbaa !13
  call void @llvm.lifetime.start.p0(i64 4, ptr %23) #8
  %43 = load ptr, ptr %7, align 8
  %44 = load i32, ptr %43, align 4, !tbaa !13
  call void @__kmpc_for_static_init_4(ptr @1, i32 %44, i32 34, ptr %22, ptr %19, ptr %20, ptr %21, i32 1, i32 1)
  %45 = load i32, ptr %20, align 4, !tbaa !13
  %46 = load i32, ptr %17, align 4, !tbaa !13
  %47 = icmp sgt i32 %45, %46
  br i1 %47, label %48, label %50

48:                                               ; preds = %41
  %49 = load i32, ptr %17, align 4, !tbaa !13
  br label %52

50:                                               ; preds = %41
  %51 = load i32, ptr %20, align 4, !tbaa !13
  br label %52

52:                                               ; preds = %50, %48
  %53 = phi i32 [ %49, %48 ], [ %51, %50 ]
  store i32 %53, ptr %20, align 4, !tbaa !13
  %54 = load i32, ptr %19, align 4, !tbaa !13
  store i32 %54, ptr %15, align 4, !tbaa !13
  br label %55

55:                                               ; preds = %192, %52
  %56 = load i32, ptr %15, align 4, !tbaa !13
  %57 = load i32, ptr %20, align 4, !tbaa !13
  %58 = icmp sle i32 %56, %57
  br i1 %58, label %60, label %59

59:                                               ; preds = %55
  br label %195

60:                                               ; preds = %55
  %61 = load i32, ptr %15, align 4, !tbaa !13
  %62 = mul nsw i32 %61, 1
  %63 = add nsw i32 0, %62
  store i32 %63, ptr %23, align 4, !tbaa !13
  call void @llvm.lifetime.start.p0(i64 8, ptr %24) #8
  %64 = load ptr, ptr %13, align 8, !tbaa !9
  %65 = load i32, ptr %23, align 4, !tbaa !13
  %66 = invoke noundef ptr @_ZNK4ncnn3Mat3rowEi(ptr noundef nonnull align 8 dereferenceable(72) %64, i32 noundef %65)
          to label %67 unwind label %200

67:                                               ; preds = %60
  store ptr %66, ptr %24, align 8, !tbaa !57
  call void @llvm.lifetime.start.p0(i64 8, ptr %25) #8
  %68 = load ptr, ptr %14, align 8, !tbaa !9
  %69 = load i32, ptr %23, align 4, !tbaa !13
  %70 = mul nsw i32 %69, 4
  %71 = invoke noundef ptr @_ZN4ncnn3Mat3rowEi(ptr noundef nonnull align 8 dereferenceable(72) %68, i32 noundef %70)
          to label %72 unwind label %200

72:                                               ; preds = %67
  store ptr %71, ptr %25, align 8, !tbaa !57
  call void @llvm.lifetime.start.p0(i64 8, ptr %26) #8
  %73 = load ptr, ptr %14, align 8, !tbaa !9
  %74 = load i32, ptr %23, align 4, !tbaa !13
  %75 = mul nsw i32 %74, 4
  %76 = add nsw i32 %75, 1
  %77 = invoke noundef ptr @_ZN4ncnn3Mat3rowEi(ptr noundef nonnull align 8 dereferenceable(72) %73, i32 noundef %76)
          to label %78 unwind label %200

78:                                               ; preds = %72
  store ptr %77, ptr %26, align 8, !tbaa !57
  call void @llvm.lifetime.start.p0(i64 8, ptr %27) #8
  %79 = load ptr, ptr %14, align 8, !tbaa !9
  %80 = load i32, ptr %23, align 4, !tbaa !13
  %81 = mul nsw i32 %80, 4
  %82 = add nsw i32 %81, 2
  %83 = invoke noundef ptr @_ZN4ncnn3Mat3rowEi(ptr noundef nonnull align 8 dereferenceable(72) %79, i32 noundef %82)
          to label %84 unwind label %200

84:                                               ; preds = %78
  store ptr %83, ptr %27, align 8, !tbaa !57
  call void @llvm.lifetime.start.p0(i64 8, ptr %28) #8
  %85 = load ptr, ptr %14, align 8, !tbaa !9
  %86 = load i32, ptr %23, align 4, !tbaa !13
  %87 = mul nsw i32 %86, 4
  %88 = add nsw i32 %87, 3
  %89 = invoke noundef ptr @_ZN4ncnn3Mat3rowEi(ptr noundef nonnull align 8 dereferenceable(72) %85, i32 noundef %88)
          to label %90 unwind label %200

90:                                               ; preds = %84
  store ptr %89, ptr %28, align 8, !tbaa !57
  call void @llvm.lifetime.start.p0(i64 4, ptr %29) #8
  store i32 0, ptr %29, align 4, !tbaa !13
  br label %91

91:                                               ; preds = %187, %90
  %92 = load i32, ptr %29, align 4, !tbaa !13
  %93 = load i32, ptr %33, align 4, !tbaa !13
  %94 = icmp slt i32 %92, %93
  br i1 %94, label %96, label %95

95:                                               ; preds = %91
  call void @llvm.lifetime.end.p0(i64 4, ptr %29) #8
  br label %190

96:                                               ; preds = %91
  %97 = load ptr, ptr %24, align 8, !tbaa !57
  %98 = getelementptr inbounds float, ptr %97, i64 0
  %99 = load float, ptr %98, align 4, !tbaa !62
  %100 = load ptr, ptr %25, align 8, !tbaa !57
  %101 = getelementptr inbounds float, ptr %100, i64 0
  store float %99, ptr %101, align 4, !tbaa !62
  %102 = load ptr, ptr %24, align 8, !tbaa !57
  %103 = getelementptr inbounds float, ptr %102, i64 1
  %104 = load float, ptr %103, align 4, !tbaa !62
  %105 = load ptr, ptr %25, align 8, !tbaa !57
  %106 = getelementptr inbounds float, ptr %105, i64 1
  store float %104, ptr %106, align 4, !tbaa !62
  %107 = load ptr, ptr %24, align 8, !tbaa !57
  %108 = getelementptr inbounds float, ptr %107, i64 2
  %109 = load float, ptr %108, align 4, !tbaa !62
  %110 = load ptr, ptr %25, align 8, !tbaa !57
  %111 = getelementptr inbounds float, ptr %110, i64 2
  store float %109, ptr %111, align 4, !tbaa !62
  %112 = load ptr, ptr %24, align 8, !tbaa !57
  %113 = getelementptr inbounds float, ptr %112, i64 3
  %114 = load float, ptr %113, align 4, !tbaa !62
  %115 = load ptr, ptr %25, align 8, !tbaa !57
  %116 = getelementptr inbounds float, ptr %115, i64 3
  store float %114, ptr %116, align 4, !tbaa !62
  %117 = load ptr, ptr %24, align 8, !tbaa !57
  %118 = getelementptr inbounds float, ptr %117, i64 4
  %119 = load float, ptr %118, align 4, !tbaa !62
  %120 = load ptr, ptr %26, align 8, !tbaa !57
  %121 = getelementptr inbounds float, ptr %120, i64 0
  store float %119, ptr %121, align 4, !tbaa !62
  %122 = load ptr, ptr %24, align 8, !tbaa !57
  %123 = getelementptr inbounds float, ptr %122, i64 5
  %124 = load float, ptr %123, align 4, !tbaa !62
  %125 = load ptr, ptr %26, align 8, !tbaa !57
  %126 = getelementptr inbounds float, ptr %125, i64 1
  store float %124, ptr %126, align 4, !tbaa !62
  %127 = load ptr, ptr %24, align 8, !tbaa !57
  %128 = getelementptr inbounds float, ptr %127, i64 6
  %129 = load float, ptr %128, align 4, !tbaa !62
  %130 = load ptr, ptr %26, align 8, !tbaa !57
  %131 = getelementptr inbounds float, ptr %130, i64 2
  store float %129, ptr %131, align 4, !tbaa !62
  %132 = load ptr, ptr %24, align 8, !tbaa !57
  %133 = getelementptr inbounds float, ptr %132, i64 7
  %134 = load float, ptr %133, align 4, !tbaa !62
  %135 = load ptr, ptr %26, align 8, !tbaa !57
  %136 = getelementptr inbounds float, ptr %135, i64 3
  store float %134, ptr %136, align 4, !tbaa !62
  %137 = load ptr, ptr %24, align 8, !tbaa !57
  %138 = getelementptr inbounds float, ptr %137, i64 8
  %139 = load float, ptr %138, align 4, !tbaa !62
  %140 = load ptr, ptr %27, align 8, !tbaa !57
  %141 = getelementptr inbounds float, ptr %140, i64 0
  store float %139, ptr %141, align 4, !tbaa !62
  %142 = load ptr, ptr %24, align 8, !tbaa !57
  %143 = getelementptr inbounds float, ptr %142, i64 9
  %144 = load float, ptr %143, align 4, !tbaa !62
  %145 = load ptr, ptr %27, align 8, !tbaa !57
  %146 = getelementptr inbounds float, ptr %145, i64 1
  store float %144, ptr %146, align 4, !tbaa !62
  %147 = load ptr, ptr %24, align 8, !tbaa !57
  %148 = getelementptr inbounds float, ptr %147, i64 10
  %149 = load float, ptr %148, align 4, !tbaa !62
  %150 = load ptr, ptr %27, align 8, !tbaa !57
  %151 = getelementptr inbounds float, ptr %150, i64 2
  store float %149, ptr %151, align 4, !tbaa !62
  %152 = load ptr, ptr %24, align 8, !tbaa !57
  %153 = getelementptr inbounds float, ptr %152, i64 11
  %154 = load float, ptr %153, align 4, !tbaa !62
  %155 = load ptr, ptr %27, align 8, !tbaa !57
  %156 = getelementptr inbounds float, ptr %155, i64 3
  store float %154, ptr %156, align 4, !tbaa !62
  %157 = load ptr, ptr %24, align 8, !tbaa !57
  %158 = getelementptr inbounds float, ptr %157, i64 12
  %159 = load float, ptr %158, align 4, !tbaa !62
  %160 = load ptr, ptr %28, align 8, !tbaa !57
  %161 = getelementptr inbounds float, ptr %160, i64 0
  store float %159, ptr %161, align 4, !tbaa !62
  %162 = load ptr, ptr %24, align 8, !tbaa !57
  %163 = getelementptr inbounds float, ptr %162, i64 13
  %164 = load float, ptr %163, align 4, !tbaa !62
  %165 = load ptr, ptr %28, align 8, !tbaa !57
  %166 = getelementptr inbounds float, ptr %165, i64 1
  store float %164, ptr %166, align 4, !tbaa !62
  %167 = load ptr, ptr %24, align 8, !tbaa !57
  %168 = getelementptr inbounds float, ptr %167, i64 14
  %169 = load float, ptr %168, align 4, !tbaa !62
  %170 = load ptr, ptr %28, align 8, !tbaa !57
  %171 = getelementptr inbounds float, ptr %170, i64 2
  store float %169, ptr %171, align 4, !tbaa !62
  %172 = load ptr, ptr %24, align 8, !tbaa !57
  %173 = getelementptr inbounds float, ptr %172, i64 15
  %174 = load float, ptr %173, align 4, !tbaa !62
  %175 = load ptr, ptr %28, align 8, !tbaa !57
  %176 = getelementptr inbounds float, ptr %175, i64 3
  store float %174, ptr %176, align 4, !tbaa !62
  %177 = load ptr, ptr %24, align 8, !tbaa !57
  %178 = getelementptr inbounds float, ptr %177, i64 16
  store ptr %178, ptr %24, align 8, !tbaa !57
  %179 = load ptr, ptr %25, align 8, !tbaa !57
  %180 = getelementptr inbounds float, ptr %179, i64 4
  store ptr %180, ptr %25, align 8, !tbaa !57
  %181 = load ptr, ptr %26, align 8, !tbaa !57
  %182 = getelementptr inbounds float, ptr %181, i64 4
  store ptr %182, ptr %26, align 8, !tbaa !57
  %183 = load ptr, ptr %27, align 8, !tbaa !57
  %184 = getelementptr inbounds float, ptr %183, i64 4
  store ptr %184, ptr %27, align 8, !tbaa !57
  %185 = load ptr, ptr %28, align 8, !tbaa !57
  %186 = getelementptr inbounds float, ptr %185, i64 4
  store ptr %186, ptr %28, align 8, !tbaa !57
  br label %187

187:                                              ; preds = %96
  %188 = load i32, ptr %29, align 4, !tbaa !13
  %189 = add nsw i32 %188, 1
  store i32 %189, ptr %29, align 4, !tbaa !13
  br label %91, !llvm.loop !76

190:                                              ; preds = %95
  call void @llvm.lifetime.end.p0(i64 8, ptr %28) #8
  call void @llvm.lifetime.end.p0(i64 8, ptr %27) #8
  call void @llvm.lifetime.end.p0(i64 8, ptr %26) #8
  call void @llvm.lifetime.end.p0(i64 8, ptr %25) #8
  call void @llvm.lifetime.end.p0(i64 8, ptr %24) #8
  br label %191

191:                                              ; preds = %190
  br label %192

192:                                              ; preds = %191
  %193 = load i32, ptr %15, align 4, !tbaa !13
  %194 = add nsw i32 %193, 1
  store i32 %194, ptr %15, align 4, !tbaa !13
  br label %55

195:                                              ; preds = %59
  br label %196

196:                                              ; preds = %195
  %197 = load ptr, ptr %7, align 8
  %198 = load i32, ptr %197, align 4, !tbaa !13
  call void @__kmpc_for_static_fini(ptr @1, i32 %198)
  call void @llvm.lifetime.end.p0(i64 4, ptr %23) #8
  call void @llvm.lifetime.end.p0(i64 4, ptr %22) #8
  call void @llvm.lifetime.end.p0(i64 4, ptr %21) #8
  call void @llvm.lifetime.end.p0(i64 4, ptr %20) #8
  call void @llvm.lifetime.end.p0(i64 4, ptr %19) #8
  br label %199

199:                                              ; preds = %196, %6
  call void @llvm.lifetime.end.p0(i64 4, ptr %17) #8
  call void @llvm.lifetime.end.p0(i64 4, ptr %16) #8
  call void @llvm.lifetime.end.p0(i64 4, ptr %15) #8
  ret void

200:                                              ; preds = %84, %78, %72, %67, %60
  %201 = landingpad { ptr, i32 }
          catch ptr null
  %202 = extractvalue { ptr, i32 } %201, 0
  call void @__clang_call_terminate(ptr %202) #14
  unreachable
}